; Function Attrs: mustprogress uwtable
define void @_ZN8LightGBM8Metadata4InitEPKc(ptr noundef nonnull align 8 dereferenceable(300) %0, ptr noundef %1) local_unnamed_addr #8 align 2 {
  %3 = getelementptr inbounds nuw i8, ptr %0, i64 8
  %4 = load i64, ptr %3, align 8, !tbaa !10
  %5 = tail call noundef i64 @strlen(ptr noundef nonnull dereferenceable(1) %1) #20
  %6 = tail call noundef nonnull align 8 dereferenceable(32) ptr @_ZNSt7__cxx1112basic_stringIcSt11char_traitsIcESaIcEE10_M_replaceEmmPKcm(ptr noundef nonnull align 8 dereferenceable(32) %0, i64 noundef 0, i64 noundef %4, ptr noundef nonnull %1, i64 noundef %5)
  tail call void @_ZN8LightGBM8Metadata19LoadQueryBoundariesEv(ptr noundef nonnull align 8 dereferenceable(300) %0)
  tail call void @_ZN8LightGBM8Metadata11LoadWeightsEv(ptr noundef nonnull align 8 dereferenceable(300) %0)
  tail call void @_ZN8LightGBM8Metadata13LoadPositionsEv(ptr noundef nonnull align 8 dereferenceable(300) %0)
  tail call void @_ZN8LightGBM8Metadata21CalculateQueryWeightsEv(ptr noundef nonnull align 8 dereferenceable(300) %0)
  tail call void @_ZN8LightGBM8Metadata16LoadInitialScoreERKNSt7__cxx1112basic_stringIcSt11char_traitsIcESaIcEEE(ptr noundef nonnull align 8 dereferenceable(300) %0, ptr noundef nonnull align 8 dereferenceable(32) %0)
  ret void
}